target datalayout = "e-m:e-p270:32:32-p271:32:32-p272:64:64-i64:64-i128:128-f80:128-n8:16:32:64-S128"
target triple = "x86_64-pc-linux-gnu"

%struct.AVOption = type { ptr, ptr, i32, i32, %union.anon, double, double, i32, ptr }
%union.anon = type { i64 }

; Function Attrs: nounwind uwtable
define i32 @av_opt_get_dict_val(ptr noundef %0, ptr noundef %1, i32 noundef %2, ptr noundef %3) #0 {
  %5 = alloca i32, align 4
  %6 = alloca ptr, align 8
  %7 = alloca ptr, align 8
  %8 = alloca i32, align 4
  %9 = alloca ptr, align 8
  %10 = alloca ptr, align 8
  %11 = alloca ptr, align 8
  %12 = alloca ptr, align 8
  %13 = alloca i32, align 4
  store ptr %0, ptr %6, align 8, !tbaa !4
  store ptr %1, ptr %7, align 8, !tbaa !19
  store i32 %2, ptr %8, align 4, !tbaa !20
  store ptr %3, ptr %9, align 8, !tbaa !67
  call void @llvm.lifetime.start.p0(i64 8, ptr %10) #11
  call void @llvm.lifetime.start.p0(i64 8, ptr %11) #11
  call void @llvm.lifetime.start.p0(i64 8, ptr %12) #11
  %14 = load ptr, ptr %6, align 8, !tbaa !4
  %15 = load ptr, ptr %7, align 8, !tbaa !19
  %16 = load i32, ptr %8, align 4, !tbaa !20
  %17 = call ptr @av_opt_find2(ptr noundef %14, ptr noundef %15, ptr noundef null, i32 noundef 0, i32 noundef %16, ptr noundef %10)
  store ptr %17, ptr %12, align 8, !tbaa !8
  %18 = load ptr, ptr %12, align 8, !tbaa !8
  %19 = icmp ne ptr %18, null
  br i1 %19, label %20, label %23

20:                                               ; preds = %4
  %21 = load ptr, ptr %10, align 8, !tbaa !4
  %22 = icmp ne ptr %21, null
  br i1 %22, label %24, label %23

23:                                               ; preds = %20, %4
  store i32 -1414549496, ptr %5, align 4
  store i32 1, ptr %13, align 4
  br label %41

24:                                               ; preds = %20
  %25 = load ptr, ptr %12, align 8, !tbaa !8
  %26 = getelementptr inbounds nuw %struct.AVOption, ptr %25, i32 0, i32 3
  %27 = load i32, ptr %26, align 4, !tbaa !21
  %28 = icmp ne i32 %27, 9
  br i1 %28, label %29, label %30

29:                                               ; preds = %24
  store i32 -22, ptr %5, align 4
  store i32 1, ptr %13, align 4
  br label %41

30:                                               ; preds = %24
  %31 = load ptr, ptr %10, align 8, !tbaa !4
  %32 = load ptr, ptr %12, align 8, !tbaa !8
  %33 = getelementptr inbounds nuw %struct.AVOption, ptr %32, i32 0, i32 2
  %34 = load i32, ptr %33, align 8, !tbaa !34
  %35 = sext i32 %34 to i64
  %36 = getelementptr inbounds i8, ptr %31, i64 %35
  %37 = load ptr, ptr %36, align 8, !tbaa !65
  store ptr %37, ptr %11, align 8, !tbaa !65
  %38 = load ptr, ptr %9, align 8, !tbaa !67
  %39 = load ptr, ptr %11, align 8, !tbaa !65
  %40 = call i32 @av_dict_copy(ptr noundef %38, ptr noundef %39, i32 noundef 0)
  store i32 %40, ptr %5, align 4
  store i32 1, ptr %13, align 4
  br label %41

41:                                               ; preds = %30, %29, %23
  call void @llvm.lifetime.end.p0(i64 8, ptr %12) #11
  call void @llvm.lifetime.end.p0(i64 8, ptr %11) #11
  call void @llvm.lifetime.end.p0(i64 8, ptr %10) #11
  %42 = load i32, ptr %5, align 4
  ret i32 %42
}