; Function Attrs: nounwind uwtable
define i32 @av_opt_get_dict_val(ptr noundef %0, ptr noundef %1, i32 noundef %2, ptr noundef %3) local_unnamed_addr #2 {
  %5 = alloca ptr, align 8
  call void @llvm.lifetime.start.p0(i64 8, ptr nonnull %5) #18
  %6 = call ptr @av_opt_find2(ptr noundef %0, ptr noundef %1, ptr noundef null, i32 noundef 0, i32 noundef %2, ptr noundef nonnull %5)
  %7 = icmp ne ptr %6, null
  %8 = load ptr, ptr %5, align 8
  %9 = icmp ne ptr %8, null
  %or.cond = select i1 %7, i1 %9, i1 false
  br i1 %or.cond, label %10, label %20

10:                                               ; preds = %4
  %11 = getelementptr inbounds nuw i8, ptr %6, i64 20
  %12 = load i32, ptr %11, align 4, !tbaa !18
  %.not = icmp eq i32 %12, 9
  br i1 %.not, label %13, label %20

13:                                               ; preds = %10
  %14 = getelementptr inbounds nuw i8, ptr %6, i64 16
  %15 = load i32, ptr %14, align 8, !tbaa !28
  %16 = sext i32 %15 to i64
  %17 = getelementptr inbounds i8, ptr %8, i64 %16
  %18 = load ptr, ptr %17, align 8, !tbaa !45
  %19 = call i32 @av_dict_copy(ptr noundef %3, ptr noundef %18, i32 noundef 0) #18
  br label %20

20:                                               ; preds = %10, %4, %13
  %.0 = phi i32 [ %19, %13 ], [ -1414549496, %4 ], [ -22, %10 ]
  call void @llvm.lifetime.end.p0(i64 8, ptr nonnull %5) #18
  ret i32 %.0
}